; Function Attrs: mustprogress uwtable
define void @_ZN32pxrInternal_v0_24__pxrReserved__13TraceReporter19ReportChromeTracingERSo(ptr noundef nonnull align 8 dereferenceable(160) %0, ptr noundef nonnull align 8 dereferenceable(8) %1) local_unnamed_addr #1 align 2 personality ptr @__gxx_personality_v0 {
  %3 = alloca %"class.pxrInternal_v0_24__pxrReserved__::TfCallContext", align 8
  %4 = alloca %"class.pxrInternal_v0_24__pxrReserved__::JsWriter", align 8
  %5 = alloca %"class.std::function", align 8
  tail call void @_ZN32pxrInternal_v0_24__pxrReserved__13TraceReporter30_RebuildEventAndAggregateTreesEv(ptr noundef nonnull align 8 dereferenceable(160) %0)
  call void @_ZN32pxrInternal_v0_24__pxrReserved__8JsWriterC1ERSoNS0_5StyleE(ptr noundef nonnull align 8 dereferenceable(8) %4, ptr noundef nonnull align 8 dereferenceable(8) %1, i32 noundef 0)
  %6 = getelementptr inbounds nuw i8, ptr %0, i64 152
  call void @llvm.lifetime.start.p0(i64 40, ptr nonnull %3)
  %7 = load ptr, ptr %6, align 8
  %.not.i = icmp eq ptr %7, null
  br i1 %.not.i, label %8, label %13

8:                                                ; preds = %2
  store ptr @.str.17, ptr %3, align 8
  %9 = getelementptr inbounds nuw i8, ptr %3, i64 8
  store ptr @__func__._ZNK32pxrInternal_v0_24__pxrReserved__8TfRefPtrINS_18TraceAggregateNodeEEptEv, ptr %9, align 8
  %10 = getelementptr inbounds nuw i8, ptr %3, i64 16
  store i64 936, ptr %10, align 8
  %11 = getelementptr inbounds nuw i8, ptr %3, i64 24
  store ptr @__PRETTY_FUNCTION__._ZNK32pxrInternal_v0_24__pxrReserved__8TfRefPtrINS_14TraceEventTreeEEptEv, ptr %11, align 8
  %12 = getelementptr inbounds nuw i8, ptr %3, i64 32
  store i8 0, ptr %12, align 8
  invoke void @_ZN32pxrInternal_v0_24__pxrReserved__40Tf_PostNullSmartPtrDereferenceFatalErrorERKNS_13TfCallContextEPKc(ptr noundef nonnull align 8 dereferenceable(33) %3, ptr noundef nonnull @_ZTSN32pxrInternal_v0_24__pxrReserved__8TfRefPtrINS_14TraceEventTreeEEE) #32
          to label %.noexc unwind label %22

.noexc:                                           ; preds = %8
  unreachable

13:                                               ; preds = %2
  call void @llvm.lifetime.end.p0(i64 40, ptr nonnull %3)
  call void @llvm.memset.p0.i64(ptr noundef nonnull align 8 dereferenceable(32) %5, i8 0, i64 32, i1 false)
  invoke void @_ZNK32pxrInternal_v0_24__pxrReserved__14TraceEventTree22WriteChromeTraceObjectERNS_8JsWriterESt8functionIFvS2_EE(ptr noundef nonnull align 8 dereferenceable(144) %7, ptr noundef nonnull align 8 dereferenceable(8) %4, ptr noundef nonnull %5)
          to label %14 unwind label %24

14:                                               ; preds = %13
  %15 = getelementptr inbounds nuw i8, ptr %5, i64 16
  %16 = load ptr, ptr %15, align 8
  %.not.i.i = icmp eq ptr %16, null
  br i1 %.not.i.i, label %_ZNSt8functionIFvRN32pxrInternal_v0_24__pxrReserved__8JsWriterEEED2Ev.exit, label %17

17:                                               ; preds = %14
  %18 = invoke noundef zeroext i1 %16(ptr noundef nonnull align 8 dereferenceable(16) %5, ptr noundef nonnull align 8 dereferenceable(16) %5, i32 noundef 3)
          to label %_ZNSt8functionIFvRN32pxrInternal_v0_24__pxrReserved__8JsWriterEEED2Ev.exit unwind label %19

19:                                               ; preds = %17
  %20 = landingpad { ptr, i32 }
          catch ptr null
  %21 = extractvalue { ptr, i32 } %20, 0
  call void @__clang_call_terminate(ptr %21) #31
  unreachable

_ZNSt8functionIFvRN32pxrInternal_v0_24__pxrReserved__8JsWriterEEED2Ev.exit: ; preds = %14, %17
  call void @_ZN32pxrInternal_v0_24__pxrReserved__8JsWriterD1Ev(ptr noundef nonnull align 8 dereferenceable(8) %4) #30
  ret void

22:                                               ; preds = %8
  %23 = landingpad { ptr, i32 }
          cleanup
  br label %_ZNSt8functionIFvRN32pxrInternal_v0_24__pxrReserved__8JsWriterEEED2Ev.exit6

24:                                               ; preds = %13
  %25 = landingpad { ptr, i32 }
          cleanup
  %26 = getelementptr inbounds nuw i8, ptr %5, i64 16
  %27 = load ptr, ptr %26, align 8
  %.not.i.i5 = icmp eq ptr %27, null
  br i1 %.not.i.i5, label %_ZNSt8functionIFvRN32pxrInternal_v0_24__pxrReserved__8JsWriterEEED2Ev.exit6, label %28

28:                                               ; preds = %24
  %29 = invoke noundef zeroext i1 %27(ptr noundef nonnull align 8 dereferenceable(16) %5, ptr noundef nonnull align 8 dereferenceable(16) %5, i32 noundef 3)
          to label %_ZNSt8functionIFvRN32pxrInternal_v0_24__pxrReserved__8JsWriterEEED2Ev.exit6 unwind label %30

30:                                               ; preds = %28
  %31 = landingpad { ptr, i32 }
          catch ptr null
  %32 = extractvalue { ptr, i32 } %31, 0
  call void @__clang_call_terminate(ptr %32) #31
  unreachable

_ZNSt8functionIFvRN32pxrInternal_v0_24__pxrReserved__8JsWriterEEED2Ev.exit6: ; preds = %28, %24, %22
  %.pn = phi { ptr, i32 } [ %23, %22 ], [ %25, %24 ], [ %25, %28 ]
  call void @_ZN32pxrInternal_v0_24__pxrReserved__8JsWriterD1Ev(ptr noundef nonnull align 8 dereferenceable(8) %4) #30
  resume { ptr, i32 } %.pn
}